; Function Attrs: nounwind uwtable
define internal void @_expander_drag_leave(ptr noundef %0, ptr readnone captures(none) %1, i32 noundef %2, ptr readnone captures(none) %3) #0 {
  %.not.i = icmp eq ptr %0, null
  br i1 %.not.i, label %8, label %5

5:                                                ; preds = %4
  %6 = tail call i64 @gtk_widget_get_type() #11
  %7 = tail call ptr @g_type_check_instance_cast(ptr noundef nonnull %0, i64 noundef %6) #10
  br label %10

8:                                                ; preds = %4
  %9 = load ptr, ptr @_drop_widget, align 8, !tbaa !34
  br label %10

10:                                               ; preds = %8, %5
  %11 = phi ptr [ %7, %5 ], [ %9, %8 ]
  %.not21.i = icmp eq ptr %11, null
  br i1 %.not21.i, label %dtgtk_expander_set_drag_hover.exit, label %12

12:                                               ; preds = %10
  %13 = load ptr, ptr @_drop_widget, align 8
  %14 = icmp eq ptr %11, %13
  %15 = load i32, ptr @dtgtk_expander_set_drag_hover.last_time, align 4
  %16 = icmp eq i32 %2, %15
  %or.cond26.i = select i1 %14, i1 %16, i1 false
  br i1 %or.cond26.i, label %dtgtk_expander_set_drag_hover.exit, label %17

17:                                               ; preds = %12
  tail call void @dt_gui_remove_class(ptr noundef nonnull %11, ptr noundef nonnull @.str.2) #10
  tail call void @dt_gui_remove_class(ptr noundef nonnull %11, ptr noundef nonnull @.str.3) #10
  br label %dtgtk_expander_set_drag_hover.exit

dtgtk_expander_set_drag_hover.exit:               ; preds = %10, %12, %17
  ret void
}